; Function Attrs: nounwind uwtable
define ptr @l_Array_foldrMUnsafe_fold___at_Lean_Compiler_LCNF_JoinPointContextExtender_extend_go___spec__8(ptr noundef readonly captures(none) %0, i64 noundef %1, i64 noundef %2, ptr noundef %3) local_unnamed_addr #1 {
  %.not41 = icmp eq i64 %1, %2
  br i1 %.not41, label %._crit_edge, label %.lr.ph

.lr.ph:                                           ; preds = %4
  %5 = getelementptr inbounds nuw i8, ptr %0, i64 24
  br label %6

6:                                                ; preds = %.lr.ph, %45
  %.02143 = phi i64 [ %1, %.lr.ph ], [ %7, %45 ]
  %.02342 = phi ptr [ %3, %.lr.ph ], [ %46, %45 ]
  %7 = add i64 %.02143, -1
  %8 = getelementptr inbounds nuw [0 x ptr], ptr %5, i64 0, i64 %7
  %9 = load ptr, ptr %8, align 8, !tbaa !4
  %10 = ptrtoint ptr %9 to i64
  %11 = and i64 %10, 1
  %.not.i26 = icmp eq i64 %11, 0
  br i1 %.not.i26, label %12, label %lean_array_uget.exit

12:                                               ; preds = %6
  %.val.i.i = load i32, ptr %9, align 4, !tbaa !8
  %13 = icmp sgt i32 %.val.i.i, 0
  br i1 %13, label %14, label %16, !prof !11

14:                                               ; preds = %12
  %15 = add nuw i32 %.val.i.i, 1
  store i32 %15, ptr %9, align 4, !tbaa !8
  br label %lean_array_uget.exit

16:                                               ; preds = %12
  %.not.i.i = icmp eq i32 %.val.i.i, 0
  br i1 %.not.i.i, label %lean_array_uget.exit, label %17

17:                                               ; preds = %16
  tail call void @lean_inc_ref_cold(ptr noundef nonnull %9) #5
  br label %lean_array_uget.exit

lean_array_uget.exit:                             ; preds = %6, %14, %16, %17
  %18 = getelementptr inbounds nuw i8, ptr %9, i64 16
  %19 = load ptr, ptr %18, align 8, !tbaa !4
  %20 = ptrtoint ptr %19 to i64
  %21 = and i64 %20, 1
  %.not38 = icmp eq i64 %21, 0
  br i1 %.not38, label %22, label %lean_inc.exit25

22:                                               ; preds = %lean_array_uget.exit
  %.val.i = load i32, ptr %19, align 4, !tbaa !8
  %23 = icmp sgt i32 %.val.i, 0
  br i1 %23, label %24, label %26, !prof !11

24:                                               ; preds = %22
  %25 = add nuw i32 %.val.i, 1
  store i32 %25, ptr %19, align 4, !tbaa !8
  br label %lean_inc.exit25

26:                                               ; preds = %22
  %.not.i27 = icmp eq i32 %.val.i, 0
  br i1 %.not.i27, label %lean_inc.exit25, label %27

27:                                               ; preds = %26
  tail call void @lean_inc_ref_cold(ptr noundef nonnull %19) #5
  br label %lean_inc.exit25

lean_inc.exit25:                                  ; preds = %27, %26, %24, %lean_array_uget.exit
  %28 = getelementptr inbounds nuw i8, ptr %9, i64 24
  %29 = load ptr, ptr %28, align 8, !tbaa !4
  %30 = ptrtoint ptr %29 to i64
  %31 = and i64 %30, 1
  %.not39 = icmp eq i64 %31, 0
  br i1 %.not39, label %32, label %lean_inc.exit

32:                                               ; preds = %lean_inc.exit25
  %.val.i28 = load i32, ptr %29, align 4, !tbaa !8
  %33 = icmp sgt i32 %.val.i28, 0
  br i1 %33, label %34, label %36, !prof !11

34:                                               ; preds = %32
  %35 = add nuw i32 %.val.i28, 1
  store i32 %35, ptr %29, align 4, !tbaa !8
  br label %lean_inc.exit

36:                                               ; preds = %32
  %.not.i29 = icmp eq i32 %.val.i28, 0
  br i1 %.not.i29, label %lean_inc.exit, label %37

37:                                               ; preds = %36
  tail call void @lean_inc_ref_cold(ptr noundef nonnull %29) #5
  br label %lean_inc.exit

lean_inc.exit:                                    ; preds = %37, %36, %34, %lean_inc.exit25
  br i1 %.not.i26, label %38, label %45

38:                                               ; preds = %lean_inc.exit
  %39 = load i32, ptr %9, align 4, !tbaa !8
  %40 = icmp sgt i32 %39, 1
  br i1 %40, label %41, label %43, !prof !11

41:                                               ; preds = %38
  %42 = add nsw i32 %39, -1
  store i32 %42, ptr %9, align 4, !tbaa !8
  br label %45

43:                                               ; preds = %38
  %.not.i = icmp eq i32 %39, 0
  br i1 %.not.i, label %45, label %44

44:                                               ; preds = %43
  tail call void @lean_dec_ref_cold(ptr noundef nonnull %9) #5
  br label %45

45:                                               ; preds = %lean_inc.exit, %41, %43, %44
  %46 = tail call ptr @l_Lean_Expr_forallE___override(ptr noundef %19, ptr noundef %29, ptr noundef %.02342, i8 noundef zeroext 0) #5
  %.not = icmp eq i64 %7, %2
  br i1 %.not, label %._crit_edge, label %6

._crit_edge:                                      ; preds = %45, %4
  %.023.lcssa = phi ptr [ %3, %4 ], [ %46, %45 ]
  ret ptr %.023.lcssa
}